; Function Attrs: nounwind uwtable
define range(i32 -806, 805) i32 @SUNLinSolSetup_SPBCGS(ptr noundef readonly captures(none) %0, ptr readnone captures(none) %1) #0 {
  %3 = load ptr, ptr %0, align 8, !tbaa !26
  %4 = getelementptr inbounds nuw i8, ptr %3, i64 48
  %5 = load ptr, ptr %4, align 8, !tbaa !43
  %.not = icmp eq ptr %5, null
  br i1 %.not, label %13, label %6

6:                                                ; preds = %2
  %7 = getelementptr inbounds nuw i8, ptr %3, i64 64
  %8 = load ptr, ptr %7, align 8, !tbaa !45
  %9 = tail call i32 %5(ptr noundef %8) #11
  %.not14 = icmp eq i32 %9, 0
  %.pre = load ptr, ptr %0, align 8, !tbaa !26
  br i1 %.not14, label %13, label %10

10:                                               ; preds = %6
  %11 = icmp slt i32 %9, 0
  %12 = select i1 %11, i32 -806, i32 804
  br label %13

13:                                               ; preds = %2, %6, %10
  %.sink16 = phi ptr [ %.pre, %10 ], [ %.pre, %6 ], [ %3, %2 ]
  %.sink = phi i32 [ %12, %10 ], [ 0, %6 ], [ 0, %2 ]
  %14 = getelementptr inbounds nuw i8, ptr %.sink16, i64 24
  store i32 %.sink, ptr %14, align 8, !tbaa !27
  ret i32 %.sink
}